; Function Attrs: nounwind uwtable
define hidden void @_cmsFree(ptr noundef %0, ptr noundef %1) local_unnamed_addr #6 {
  %.not = icmp eq ptr %1, null
  br i1 %.not, label %7, label %3

3:                                                ; preds = %2
  %4 = tail call ptr @_cmsContextGetClientChunk(ptr noundef %0, i32 noundef 4) #20
  %5 = getelementptr inbounds i8, ptr %4, i64 16
  %6 = load ptr, ptr %5, align 8
  tail call void %6(ptr noundef %0, ptr noundef nonnull %1) #20
  br label %7

7:                                                ; preds = %3, %2
  ret void
}